; ModuleID = '40/35.c'
source_filename = "40/35.c"
target datalayout = "e-m:e-p270:32:32-p271:32:32-p272:64:64-i64:64-f80:128-n8:16:32:64-S128"
target triple = "x86_64-pc-linux-gnu"

@.str = private unnamed_addr constant [15 x i8] c"%lf%lf%lf%lf%d\00", align 1
@.str.1 = private unnamed_addr constant [6 x i8] c"%.4lf\00", align 1
@.str.2 = private unnamed_addr constant [14 x i8] c"Invalid input\00", align 1

; Function Attrs: noinline nounwind uwtable
define dso_local i32 @main() #0 {
  %1 = alloca i32, align 4
  %2 = alloca double, align 8
  %3 = alloca double, align 8
  %4 = alloca double, align 8
  %5 = alloca double, align 8
  %6 = alloca double, align 8
  %7 = alloca double, align 8
  %8 = alloca double, align 8
  %9 = alloca double, align 8
  %10 = alloca i32, align 4
  store i32 0, i32* %1, align 4
  %11 = call i32 (i8*, ...) @__isoc99_scanf(i8* getelementptr inbounds ([15 x i8], [15 x i8]* @.str, i64 0, i64 0), double* %2, double* %3, double* %4, double* %5, i32* %10)
  %12 = load i32, i32* %10, align 4
  %13 = sitofp i32 %12 to double
  %14 = fdiv double %13, 3.600000e+02
  %15 = fmul double %14, 1.000000e+02
  store double %15, double* %6, align 8
  %16 = load double, double* %2, align 8
  %17 = load double, double* %3, align 8
  %18 = fadd double %16, %17
  %19 = load double, double* %4, align 8
  %20 = fadd double %18, %19
  %21 = load double, double* %5, align 8
  %22 = fadd double %20, %21
  %23 = fmul double 5.000000e-01, %22
  store double %23, double* %7, align 8
  %24 = load double, double* %6, align 8
  %25 = call double @cos(double %24) #3
  store double %25, double* %9, align 8
  %26 = load double, double* %7, align 8
  %27 = load double, double* %2, align 8
  %28 = fsub double %26, %27
  %29 = load double, double* %7, align 8
  %30 = load double, double* %3, align 8
  %31 = fsub double %29, %30
  %32 = fmul double %28, %31
  %33 = load double, double* %7, align 8
  %34 = load double, double* %4, align 8
  %35 = fsub double %33, %34
  %36 = fmul double %32, %35
  %37 = load double, double* %7, align 8
  %38 = load double, double* %5, align 8
  %39 = fsub double %37, %38
  %40 = fmul double %36, %39
  %41 = load double, double* %2, align 8
  %42 = load double, double* %3, align 8
  %43 = fmul double %41, %42
  %44 = load double, double* %4, align 8
  %45 = fmul double %43, %44
  %46 = load double, double* %5, align 8
  %47 = fmul double %45, %46
  %48 = load double, double* %9, align 8
  %49 = fmul double %47, %48
  %50 = load double, double* %9, align 8
  %51 = fmul double %49, %50
  %52 = fsub double %40, %51
  store double %52, double* %8, align 8
  %53 = load double, double* %8, align 8
  %54 = fcmp oge double %53, 0.000000e+00
  br i1 %54, label %55, label %59

55:                                               ; preds = %0
  %56 = load double, double* %8, align 8
  %57 = call double @sqrt(double %56) #3
  %58 = call i32 (i8*, ...) @printf(i8* getelementptr inbounds ([6 x i8], [6 x i8]* @.str.1, i64 0, i64 0), double %57)
  br label %61

59:                                               ; preds = %0
  %60 = call i32 (i8*, ...) @printf(i8* getelementptr inbounds ([14 x i8], [14 x i8]* @.str.2, i64 0, i64 0))
  br label %61

61:                                               ; preds = %59, %55
  ret i32 0
}

declare dso_local i32 @__isoc99_scanf(i8*, ...) #1

; Function Attrs: nounwind
declare dso_local double @cos(double) #2

declare dso_local i32 @printf(i8*, ...) #1

; Function Attrs: nounwind
declare dso_local double @sqrt(double) #2


!llvm.module.flags = !{!0}
!llvm.ident = !{!1}

!0 = !{i32 1, !"wchar_size", i32 4}
!1 = !{!"clang version 10.0.0-4ubuntu1 "}
